target datalayout = "e-m:e-p270:32:32-p271:32:32-p272:64:64-i64:64-i128:128-f80:128-n8:16:32:64-S128"
target triple = "x86_64-pc-linux-gnu"

%"class.icu_77::Hashtable" = type { ptr, %struct.UHashtable }
%struct.UHashtable = type { ptr, ptr, ptr, ptr, ptr, ptr, i32, i32, i32, i32, float, float, i8, i8 }
%"class.icu_77::UVector" = type { %"class.icu_77::UObject", i32, i32, ptr, ptr, ptr }
%"class.icu_77::UObject" = type { ptr }
%"class.icu_77::UnicodeString" = type { %"class.icu_77::Replaceable", %"union.icu_77::UnicodeString::StackBufferOrFields" }
%"class.icu_77::Replaceable" = type { %"class.icu_77::UObject" }
%"union.icu_77::UnicodeString::StackBufferOrFields" = type { %struct.anon.0, [32 x i8] }
%struct.anon.0 = type { i16, i32, i32, ptr }
%"class.icu_77::TransliteratorParser" = type <{ [8 x i8], %"class.icu_77::UVector", %"class.icu_77::UVector", ptr, ptr, i32, %struct.UParseError, [4 x i8], ptr, %"class.icu_77::UVector", %"class.icu_77::Hashtable", %"class.icu_77::UnicodeString", %"class.icu_77::UVector", i16, i16, [4 x i8], %"class.icu_77::UnicodeString", i16, [6 x i8] }>
%struct.UParseError = type { i32, i32, [16 x i16], [16 x i16] }

; Function Attrs: inlinehint mustprogress nounwind uwtable
define linkonce_odr noundef i32 @_ZNK6icu_7713UnicodeString14getShortLengthEv(ptr noundef nonnull align 8 dereferenceable(64) %0) #2 comdat align 2 {
  %2 = alloca ptr, align 8
  store ptr %0, ptr %2, align 8, !tbaa !40
  %3 = load ptr, ptr %2, align 8
  %4 = getelementptr inbounds nuw %"class.icu_77::UnicodeString", ptr %3, i32 0, i32 1
  %5 = getelementptr inbounds nuw %struct.anon.0, ptr %4, i32 0, i32 0
  %6 = load i16, ptr %5, align 8, !tbaa !68
  %7 = sext i16 %6 to i32
  %8 = ashr i32 %7, 5
  ret i32 %8
}

; Function Attrs: inlinehint mustprogress nounwind uwtable
define linkonce_odr noundef signext i8 @_ZNK6icu_7713UnicodeString14hasShortLengthEv(ptr noundef nonnull align 8 dereferenceable(64) %0) #2 comdat align 2 {
  %2 = alloca ptr, align 8
  store ptr %0, ptr %2, align 8, !tbaa !40
  %3 = load ptr, ptr %2, align 8
  %4 = getelementptr inbounds nuw %"class.icu_77::UnicodeString", ptr %3, i32 0, i32 1
  %5 = getelementptr inbounds nuw %struct.anon.0, ptr %4, i32 0, i32 0
  %6 = load i16, ptr %5, align 8, !tbaa !68
  %7 = sext i16 %6 to i32
  %8 = icmp sge i32 %7, 0
  %9 = zext i1 %8 to i8
  ret i8 %9
}

; Function Attrs: inlinehint mustprogress uwtable
define linkonce_odr noundef nonnull align 8 dereferenceable(64) ptr @_ZN6icu_7713UnicodeString6appendERKS0_(ptr noundef nonnull align 8 dereferenceable(64) %0, ptr noundef nonnull align 8 dereferenceable(64) %1) #3 comdat align 2 {
  %3 = alloca ptr, align 8
  %4 = alloca ptr, align 8
  store ptr %0, ptr %3, align 8, !tbaa !40
  store ptr %1, ptr %4, align 8, !tbaa !40
  %5 = load ptr, ptr %3, align 8
  %6 = load ptr, ptr %4, align 8, !tbaa !40
  %7 = load ptr, ptr %4, align 8, !tbaa !40
  %8 = call noundef i32 @_ZNK6icu_7713UnicodeString6lengthEv(ptr noundef nonnull align 8 dereferenceable(64) %7)
  %9 = call noundef nonnull align 8 dereferenceable(64) ptr @_ZN6icu_7713UnicodeString8doAppendERKS0_ii(ptr noundef nonnull align 8 dereferenceable(64) %5, ptr noundef nonnull align 8 dereferenceable(64) %6, i32 noundef 0, i32 noundef %8)
  ret ptr %9
}

; Function Attrs: inlinehint mustprogress uwtable
define linkonce_odr noundef nonnull align 8 dereferenceable(64) ptr @_ZN6icu_7713UnicodeString6appendEDs(ptr noundef nonnull align 8 dereferenceable(64) %0, i16 noundef zeroext %1) #3 comdat align 2 {
  %3 = alloca ptr, align 8
  %4 = alloca i16, align 2
  store ptr %0, ptr %3, align 8, !tbaa !40
  store i16 %1, ptr %4, align 2, !tbaa !63
  %5 = load ptr, ptr %3, align 8
  %6 = call noundef nonnull align 8 dereferenceable(64) ptr @_ZN6icu_7713UnicodeString8doAppendEPKDsii(ptr noundef nonnull align 8 dereferenceable(64) %5, ptr noundef %4, i32 noundef 0, i32 noundef 1)
  ret ptr %6
}

; Function Attrs: inlinehint mustprogress uwtable
define linkonce_odr noundef i32 @_ZNK6icu_7713UnicodeString6lengthEv(ptr noundef nonnull align 8 dereferenceable(64) %0) #3 comdat align 2 {
  %2 = alloca ptr, align 8
  store ptr %0, ptr %2, align 8, !tbaa !40
  %3 = load ptr, ptr %2, align 8
  %4 = call noundef signext i8 @_ZNK6icu_7713UnicodeString14hasShortLengthEv(ptr noundef nonnull align 8 dereferenceable(64) %3)
  %5 = icmp ne i8 %4, 0
  br i1 %5, label %6, label %8

6:                                                ; preds = %1
  %7 = call noundef i32 @_ZNK6icu_7713UnicodeString14getShortLengthEv(ptr noundef nonnull align 8 dereferenceable(64) %3)
  br label %12

8:                                                ; preds = %1
  %9 = getelementptr inbounds nuw %"class.icu_77::UnicodeString", ptr %3, i32 0, i32 1
  %10 = getelementptr inbounds nuw %struct.anon.0, ptr %9, i32 0, i32 1
  %11 = load i32, ptr %10, align 4, !tbaa !68
  br label %12

12:                                               ; preds = %8, %6
  %13 = phi i32 [ %7, %6 ], [ %11, %8 ]
  ret i32 %13
}

; Function Attrs: inlinehint mustprogress uwtable
define linkonce_odr noundef ptr @_ZNK6icu_779Hashtable3getERKNS_13UnicodeStringE(ptr noundef nonnull align 8 dereferenceable(88) %0, ptr noundef nonnull align 8 dereferenceable(64) %1) #3 comdat align 2 {
  %3 = alloca ptr, align 8
  %4 = alloca ptr, align 8
  store ptr %0, ptr %3, align 8, !tbaa !29
  store ptr %1, ptr %4, align 8, !tbaa !40
  %5 = load ptr, ptr %3, align 8
  %6 = getelementptr inbounds nuw %"class.icu_77::Hashtable", ptr %5, i32 0, i32 0
  %7 = load ptr, ptr %6, align 8, !tbaa !42
  %8 = load ptr, ptr %4, align 8, !tbaa !40
  %9 = call ptr @uhash_get_77(ptr noundef %7, ptr noundef %8)
  ret ptr %9
}

; Function Attrs: mustprogress uwtable
define void @_ZN6icu_7720TransliteratorParser17appendVariableDefERKNS_13UnicodeStringERS1_R10UErrorCode(ptr noundef nonnull align 8 dereferenceable(498) %0, ptr noundef nonnull align 8 dereferenceable(64) %1, ptr noundef nonnull align 8 dereferenceable(64) %2, ptr noundef nonnull align 4 dereferenceable(4) %3) #1 align 2 {
  %5 = alloca ptr, align 8
  %6 = alloca ptr, align 8
  %7 = alloca ptr, align 8
  %8 = alloca ptr, align 8
  %9 = alloca ptr, align 8
  %10 = alloca i32, align 4
  store ptr %0, ptr %5, align 8, !tbaa !71
  store ptr %1, ptr %6, align 8, !tbaa !40
  store ptr %2, ptr %7, align 8, !tbaa !40
  store ptr %3, ptr %8, align 8, !tbaa !22
  %11 = load ptr, ptr %5, align 8
  call void @llvm.lifetime.start.p0(i64 8, ptr %9) #11
  %12 = getelementptr inbounds nuw %"class.icu_77::TransliteratorParser", ptr %11, i32 0, i32 10
  %13 = load ptr, ptr %6, align 8, !tbaa !40
  %14 = call noundef ptr @_ZNK6icu_779Hashtable3getERKNS_13UnicodeStringE(ptr noundef nonnull align 8 dereferenceable(88) %12, ptr noundef nonnull align 8 dereferenceable(64) %13)
  store ptr %14, ptr %9, align 8, !tbaa !40
  %15 = load ptr, ptr %9, align 8, !tbaa !40
  %16 = icmp eq ptr %15, null
  br i1 %16, label %17, label %43

17:                                               ; preds = %4
  %18 = getelementptr inbounds nuw %"class.icu_77::TransliteratorParser", ptr %11, i32 0, i32 16
  %19 = call noundef i32 @_ZNK6icu_7713UnicodeString6lengthEv(ptr noundef nonnull align 8 dereferenceable(64) %18)
  %20 = icmp eq i32 %19, 0
  br i1 %20, label %21, label %40

21:                                               ; preds = %17
  %22 = load ptr, ptr %6, align 8, !tbaa !40
  %23 = getelementptr inbounds nuw %"class.icu_77::TransliteratorParser", ptr %11, i32 0, i32 16
  %24 = call noundef nonnull align 8 dereferenceable(64) ptr @_ZN6icu_7713UnicodeStringaSERKS0_(ptr noundef nonnull align 8 dereferenceable(64) %23, ptr noundef nonnull align 8 dereferenceable(64) %22)
  %25 = getelementptr inbounds nuw %"class.icu_77::TransliteratorParser", ptr %11, i32 0, i32 13
  %26 = load i16, ptr %25, align 8, !tbaa !113
  %27 = zext i16 %26 to i32
  %28 = getelementptr inbounds nuw %"class.icu_77::TransliteratorParser", ptr %11, i32 0, i32 14
  %29 = load i16, ptr %28, align 2, !tbaa !111
  %30 = zext i16 %29 to i32
  %31 = icmp sge i32 %27, %30
  br i1 %31, label %32, label %34

32:                                               ; preds = %21
  %33 = load ptr, ptr %8, align 8, !tbaa !22
  store i32 1, ptr %33, align 4, !tbaa !15
  store i32 1, ptr %10, align 4
  br label %48

34:                                               ; preds = %21
  %35 = load ptr, ptr %7, align 8, !tbaa !40
  %36 = getelementptr inbounds nuw %"class.icu_77::TransliteratorParser", ptr %11, i32 0, i32 14
  %37 = load i16, ptr %36, align 2, !tbaa !111
  %38 = add i16 %37, -1
  store i16 %38, ptr %36, align 2, !tbaa !111
  %39 = call noundef nonnull align 8 dereferenceable(64) ptr @_ZN6icu_7713UnicodeString6appendEDs(ptr noundef nonnull align 8 dereferenceable(64) %35, i16 noundef zeroext %38)
  br label %42

40:                                               ; preds = %17
  %41 = load ptr, ptr %8, align 8, !tbaa !22
  store i32 1, ptr %41, align 4, !tbaa !15
  store i32 1, ptr %10, align 4
  br label %48

42:                                               ; preds = %34
  br label %47

43:                                               ; preds = %4
  %44 = load ptr, ptr %7, align 8, !tbaa !40
  %45 = load ptr, ptr %9, align 8, !tbaa !40
  %46 = call noundef nonnull align 8 dereferenceable(64) ptr @_ZN6icu_7713UnicodeString6appendERKS0_(ptr noundef nonnull align 8 dereferenceable(64) %44, ptr noundef nonnull align 8 dereferenceable(64) %45)
  br label %47

47:                                               ; preds = %43, %42
  store i32 0, ptr %10, align 4
  br label %48

48:                                               ; preds = %47, %40, %32
  call void @llvm.lifetime.end.p0(i64 8, ptr %9) #11
  %49 = load i32, ptr %10, align 4
  switch i32 %49, label %51 [
    i32 0, label %50
    i32 1, label %50
  ]

50:                                               ; preds = %48, %48
  ret void

51:                                               ; preds = %48
  unreachable
}