; Function Attrs: mustprogress uwtable
define void @_ZN6icu_7720TransliteratorParser17appendVariableDefERKNS_13UnicodeStringERS1_R10UErrorCode(ptr noundef nonnull align 8 dereferenceable(498) %0, ptr noundef nonnull align 8 dereferenceable(64) %1, ptr noundef nonnull align 8 dereferenceable(64) %2, ptr noundef nonnull writeonly align 4 captures(none) dereferenceable(4) %3) local_unnamed_addr #1 align 2 {
  %5 = alloca i16, align 2
  %6 = getelementptr inbounds nuw i8, ptr %0, i64 232
  %7 = load ptr, ptr %6, align 8, !tbaa !25
  %8 = tail call noundef ptr @uhash_get_77(ptr noundef %7, ptr noundef nonnull align 8 dereferenceable(64) %1)
  %9 = icmp eq ptr %8, null
  br i1 %9, label %10, label %32

10:                                               ; preds = %4
  %11 = getelementptr inbounds nuw i8, ptr %0, i64 440
  %12 = load i16, ptr %11, align 8, !tbaa !44
  %13 = icmp slt i16 %12, 0
  %14 = ashr i16 %12, 5
  %15 = sext i16 %14 to i32
  %16 = getelementptr inbounds nuw i8, ptr %0, i64 444
  %17 = load i32, ptr %16, align 4
  %18 = select i1 %13, i32 %17, i32 %15
  %19 = icmp eq i32 %18, 0
  br i1 %19, label %20, label %31

20:                                               ; preds = %10
  %21 = getelementptr inbounds nuw i8, ptr %0, i64 432
  %22 = tail call noundef nonnull align 8 dereferenceable(64) ptr @_ZN6icu_7713UnicodeStringaSERKS0_(ptr noundef nonnull align 8 dereferenceable(64) %21, ptr noundef nonnull align 8 dereferenceable(64) %1)
  %23 = getelementptr inbounds nuw i8, ptr %0, i64 424
  %24 = load i16, ptr %23, align 8, !tbaa !76
  %25 = getelementptr inbounds nuw i8, ptr %0, i64 426
  %26 = load i16, ptr %25, align 2, !tbaa !77
  %.not = icmp ult i16 %24, %26
  br i1 %.not, label %28, label %27

27:                                               ; preds = %20
  store i32 1, ptr %3, align 4, !tbaa !13
  br label %42

28:                                               ; preds = %20
  %29 = add i16 %26, -1
  store i16 %29, ptr %25, align 2, !tbaa !77
  call void @llvm.lifetime.start.p0(i64 2, ptr nonnull %5)
  store i16 %29, ptr %5, align 2, !tbaa !45
  %30 = call noundef nonnull align 8 dereferenceable(64) ptr @_ZN6icu_7713UnicodeString8doAppendEPKDsii(ptr noundef nonnull align 8 dereferenceable(64) %2, ptr noundef nonnull %5, i32 noundef 0, i32 noundef 1)
  call void @llvm.lifetime.end.p0(i64 2, ptr nonnull %5)
  br label %42

31:                                               ; preds = %10
  store i32 1, ptr %3, align 4, !tbaa !13
  br label %42

32:                                               ; preds = %4
  %33 = getelementptr inbounds nuw i8, ptr %8, i64 8
  %34 = load i16, ptr %33, align 8, !tbaa !44
  %35 = icmp slt i16 %34, 0
  %36 = ashr i16 %34, 5
  %37 = sext i16 %36 to i32
  %38 = getelementptr inbounds nuw i8, ptr %8, i64 12
  %39 = load i32, ptr %38, align 4
  %40 = select i1 %35, i32 %39, i32 %37
  %41 = tail call noundef nonnull align 8 dereferenceable(64) ptr @_ZN6icu_7713UnicodeString8doAppendERKS0_ii(ptr noundef nonnull align 8 dereferenceable(64) %2, ptr noundef nonnull align 8 dereferenceable(64) %8, i32 noundef 0, i32 noundef %40)
  br label %42

42:                                               ; preds = %28, %32, %31, %27
  ret void
}